; Function Attrs: nofree norecurse nosync nounwind memory(read, inaccessiblemem: none) uwtable
define range(i32 0, 2) i32 @Sle_ManCutHasPisOnly(ptr noundef readonly captures(none) %0, ptr noundef readonly captures(none) %1) local_unnamed_addr #3 {
  %3 = getelementptr inbounds nuw i8, ptr %0, i64 4
  %.val = load i32, ptr %0, align 4, !tbaa !29
  %4 = and i32 %.val, 15
  %.not12 = icmp eq i32 %4, 0
  br i1 %.not12, label %._crit_edge, label %.lr.ph

.lr.ph:                                           ; preds = %2
  %5 = getelementptr i8, ptr %1, i64 8
  %.val8 = load ptr, ptr %5, align 8, !tbaa !57
  %wide.trip.count = zext nneg i32 %4 to i64
  br label %7

6:                                                ; preds = %7
  %indvars.iv.next = add nuw nsw i64 %indvars.iv, 1
  %exitcond.not = icmp eq i64 %indvars.iv.next, %wide.trip.count
  br i1 %exitcond.not, label %._crit_edge, label %7, !llvm.loop !60

7:                                                ; preds = %.lr.ph, %6
  %indvars.iv = phi i64 [ 0, %.lr.ph ], [ %indvars.iv.next, %6 ]
  %8 = getelementptr inbounds nuw i32, ptr %3, i64 %indvars.iv
  %9 = load i32, ptr %8, align 4, !tbaa !29
  %10 = ashr i32 %9, 5
  %11 = sext i32 %10 to i64
  %12 = getelementptr inbounds i32, ptr %.val8, i64 %11
  %13 = load i32, ptr %12, align 4, !tbaa !29
  %14 = and i32 %9, 31
  %15 = shl nuw i32 1, %14
  %16 = and i32 %13, %15
  %.not = icmp eq i32 %16, 0
  br i1 %.not, label %6, label %._crit_edge

._crit_edge:                                      ; preds = %7, %6, %2
  %.0 = phi i32 [ 1, %2 ], [ 1, %6 ], [ 0, %7 ]
  ret i32 %.0
}